target datalayout = "e-m:e-p270:32:32-p271:32:32-p272:64:64-i64:64-i128:128-f80:128-n8:16:32:64-S128"
target triple = "x86_64-pc-linux-gnu"

%"class.cv::utils::trace::details::Region" = type <{ ptr, i32, [4 x i8] }>

; Function Attrs: mustprogress uwtable
define void @_ZN2cv5AGASTERKNS_11_InputArrayERSt6vectorINS_8KeyPointESaIS4_EEib(ptr noundef nonnull align 8 dereferenceable(24) %0, ptr noundef nonnull align 8 dereferenceable(24) %1, i32 noundef %2, i1 noundef zeroext %3) #0 personality ptr @__gxx_personality_v0 {
  %5 = alloca ptr, align 8
  %6 = alloca ptr, align 8
  %7 = alloca i32, align 4
  %8 = alloca i8, align 1
  %9 = alloca %"class.cv::utils::trace::details::Region", align 8
  %10 = alloca ptr, align 8
  %11 = alloca i32, align 4
  store ptr %0, ptr %5, align 8
  store ptr %1, ptr %6, align 8
  store i32 %2, ptr %7, align 4
  %12 = zext i1 %3 to i8
  store i8 %12, ptr %8, align 1
  call void @_ZN2cv5utils5trace7details6RegionC1ERKNS3_21LocationStaticStorageE(ptr noundef nonnull align 8 dereferenceable(12) %9, ptr noundef nonnull align 8 dereferenceable(32) @_ZZN2cv5AGASTERKNS_11_InputArrayERSt6vectorINS_8KeyPointESaIS4_EEibE26__cv_trace_location_fn7939)
  %13 = load ptr, ptr %5, align 8
  %14 = load ptr, ptr %6, align 8
  %15 = load i32, ptr %7, align 4
  %16 = load i8, ptr %8, align 1
  %17 = trunc i8 %16 to i1
  invoke void @_ZN2cv5AGASTERKNS_11_InputArrayERSt6vectorINS_8KeyPointESaIS4_EEibNS_20AgastFeatureDetector12DetectorTypeE(ptr noundef nonnull align 8 dereferenceable(24) %13, ptr noundef nonnull align 8 dereferenceable(24) %14, i32 noundef %15, i1 noundef zeroext %17, i32 noundef 3)
          to label %18 unwind label %19

18:                                               ; preds = %4
  call void @_ZN2cv5utils5trace7details6RegionD2Ev(ptr noundef nonnull align 8 dereferenceable(12) %9) #14
  ret void

19:                                               ; preds = %4
  %20 = landingpad { ptr, i32 }
          cleanup
  %21 = extractvalue { ptr, i32 } %20, 0
  store ptr %21, ptr %10, align 8
  %22 = extractvalue { ptr, i32 } %20, 1
  store i32 %22, ptr %11, align 4
  call void @_ZN2cv5utils5trace7details6RegionD2Ev(ptr noundef nonnull align 8 dereferenceable(12) %9) #14
  br label %23

23:                                               ; preds = %19
  %24 = load ptr, ptr %10, align 8
  %25 = load i32, ptr %11, align 4
  %26 = insertvalue { ptr, i32 } poison, ptr %24, 0
  %27 = insertvalue { ptr, i32 } %26, i32 %25, 1
  resume { ptr, i32 } %27
}